; Function Attrs: mustprogress uwtable
define <2 x float> @_ZN2cv6detail11PlaneWarper9warpPointERKNS_6Point_IfEERKNS_11_InputArrayES8_S8_(ptr noundef nonnull align 8 captures(none) dereferenceable(168) %0, ptr noundef nonnull readonly align 4 captures(none) dereferenceable(8) %1, ptr noundef nonnull align 8 dereferenceable(24) %2, ptr noundef nonnull align 8 dereferenceable(24) %3, ptr noundef nonnull align 8 dereferenceable(24) %4) local_unnamed_addr #8 align 2 {
  %6 = getelementptr inbounds nuw i8, ptr %0, i64 8
  tail call void @_ZN2cv6detail13ProjectorBase15setCameraParamsERKNS_11_InputArrayES4_S4_(ptr noundef nonnull align 4 dereferenceable(160) %6, ptr noundef nonnull align 8 dereferenceable(24) %2, ptr noundef nonnull align 8 dereferenceable(24) %3, ptr noundef nonnull align 8 dereferenceable(24) %4)
  %7 = load float, ptr %1, align 4, !tbaa !198
  %8 = getelementptr inbounds nuw i8, ptr %1, i64 4
  %9 = load float, ptr %8, align 4, !tbaa !200
  %10 = getelementptr inbounds nuw i8, ptr %0, i64 84
  %11 = load float, ptr %10, align 4, !tbaa !180
  %12 = getelementptr inbounds nuw i8, ptr %0, i64 88
  %13 = load float, ptr %12, align 8, !tbaa !180
  %14 = fmul float %9, %13
  %15 = tail call float @llvm.fmuladd.f32(float %11, float %7, float %14)
  %16 = getelementptr inbounds nuw i8, ptr %0, i64 92
  %17 = load float, ptr %16, align 4, !tbaa !180
  %18 = fadd float %17, %15
  %19 = getelementptr inbounds nuw i8, ptr %0, i64 96
  %20 = load float, ptr %19, align 8, !tbaa !180
  %21 = getelementptr inbounds nuw i8, ptr %0, i64 100
  %22 = load float, ptr %21, align 4, !tbaa !180
  %23 = fmul float %9, %22
  %24 = tail call float @llvm.fmuladd.f32(float %20, float %7, float %23)
  %25 = getelementptr inbounds nuw i8, ptr %0, i64 104
  %26 = load float, ptr %25, align 8, !tbaa !180
  %27 = fadd float %26, %24
  %28 = getelementptr inbounds nuw i8, ptr %0, i64 108
  %29 = load float, ptr %28, align 4, !tbaa !180
  %30 = getelementptr inbounds nuw i8, ptr %0, i64 112
  %31 = load float, ptr %30, align 8, !tbaa !180
  %32 = fmul float %9, %31
  %33 = tail call float @llvm.fmuladd.f32(float %29, float %7, float %32)
  %34 = getelementptr inbounds nuw i8, ptr %0, i64 116
  %35 = load float, ptr %34, align 4, !tbaa !180
  %36 = fadd float %35, %33
  %37 = getelementptr inbounds nuw i8, ptr %0, i64 156
  %38 = load float, ptr %37, align 4, !tbaa !180
  %39 = fdiv float %18, %36
  %40 = getelementptr inbounds nuw i8, ptr %0, i64 164
  %41 = load float, ptr %40, align 4, !tbaa !180
  %42 = fsub float 1.000000e+00, %41
  %43 = tail call float @llvm.fmuladd.f32(float %39, float %42, float %38)
  %44 = getelementptr inbounds nuw i8, ptr %0, i64 160
  %45 = load float, ptr %44, align 8, !tbaa !180
  %46 = fdiv float %27, %36
  %47 = tail call float @llvm.fmuladd.f32(float %46, float %42, float %45)
  %48 = load float, ptr %6, align 8, !tbaa !201
  %49 = fmul float %48, %43
  %.sroa.0.0.vec.insert8 = insertelement <2 x float> poison, float %49, i64 0
  %50 = fmul float %47, %48
  %.sroa.0.4.vec.insert = insertelement <2 x float> %.sroa.0.0.vec.insert8, float %50, i64 1
  ret <2 x float> %.sroa.0.4.vec.insert
}